; ModuleID = 'source-C-CXX/32/397.c'
source_filename = "source-C-CXX/32/397.c"
target datalayout = "e-m:e-p270:32:32-p271:32:32-p272:64:64-i64:64-f80:128-n8:16:32:64-S128"
target triple = "x86_64-pc-linux-gnu"

@.str = private unnamed_addr constant [3 x i8] c"%d\00", align 1
@.str.1 = private unnamed_addr constant [3 x i8] c"%s\00", align 1

; Function Attrs: nofree nounwind sspstrong uwtable
define dso_local i32 @main() local_unnamed_addr #0 {
  %1 = alloca i32, align 4
  %2 = alloca [256 x i8], align 16
  %3 = bitcast i32* %1 to i8*
  call void @llvm.lifetime.start.p0i8(i64 4, i8* nonnull %3) #4
  %4 = call i32 (i8*, ...) @__isoc99_scanf(i8* getelementptr inbounds ([3 x i8], [3 x i8]* @.str, i64 0, i64 0), i32* nonnull %1)
  %5 = getelementptr inbounds [256 x i8], [256 x i8]* %2, i64 0, i64 0
  %6 = load i32, i32* %1, align 4, !tbaa !5
  %7 = icmp sgt i32 %6, 0
  br i1 %7, label %9, label %8

8:                                                ; preds = %26, %0
  call void @llvm.lifetime.end.p0i8(i64 4, i8* nonnull %3) #4
  ret i32 0

9:                                                ; preds = %0, %26
  %10 = phi i32 [ %27, %26 ], [ 0, %0 ]
  call void @llvm.lifetime.start.p0i8(i64 256, i8* nonnull %5) #4
  %11 = call i32 (i8*, ...) @__isoc99_scanf(i8* getelementptr inbounds ([3 x i8], [3 x i8]* @.str.1, i64 0, i64 0), [256 x i8]* nonnull %2)
  br label %12

12:                                               ; preds = %9, %21
  %13 = phi i64 [ 0, %9 ], [ %24, %21 ]
  %14 = getelementptr inbounds [256 x i8], [256 x i8]* %2, i64 0, i64 %13
  %15 = load i8, i8* %14, align 1, !tbaa !9
  switch i8 %15, label %19 [
    i8 65, label %21
    i8 84, label %16
    i8 67, label %17
    i8 71, label %18
  ]

16:                                               ; preds = %12
  br label %21

17:                                               ; preds = %12
  br label %21

18:                                               ; preds = %12
  br label %21

19:                                               ; preds = %12
  %20 = call i32 @putchar(i32 10)
  br label %26

21:                                               ; preds = %12, %17, %18, %16
  %22 = phi i32 [ 71, %17 ], [ 67, %18 ], [ 65, %16 ], [ 84, %12 ]
  %23 = call i32 @putchar(i32 %22)
  %24 = add nuw nsw i64 %13, 1
  %25 = icmp eq i64 %24, 256
  br i1 %25, label %26, label %12, !llvm.loop !10

26:                                               ; preds = %21, %19
  call void @llvm.lifetime.end.p0i8(i64 256, i8* nonnull %5) #4
  %27 = add nuw nsw i32 %10, 1
  %28 = load i32, i32* %1, align 4, !tbaa !5
  %29 = icmp slt i32 %27, %28
  br i1 %29, label %9, label %8, !llvm.loop !12
}

; Function Attrs: argmemonly mustprogress nofree nosync nounwind willreturn
declare void @llvm.lifetime.start.p0i8(i64 immarg, i8* nocapture) #1

; Function Attrs: nofree nounwind
declare noundef i32 @__isoc99_scanf(i8* nocapture noundef readonly, ...) local_unnamed_addr #2

; Function Attrs: argmemonly mustprogress nofree nosync nounwind willreturn
declare void @llvm.lifetime.end.p0i8(i64 immarg, i8* nocapture) #1

; Function Attrs: nofree nounwind
declare noundef i32 @putchar(i32 noundef) local_unnamed_addr #3


!llvm.module.flags = !{!0, !1, !2, !3}
!llvm.ident = !{!4}

!0 = !{i32 1, !"wchar_size", i32 4}
!1 = !{i32 7, !"PIC Level", i32 2}
!2 = !{i32 7, !"PIE Level", i32 2}
!3 = !{i32 7, !"uwtable", i32 1}
!4 = !{!"clang version 13.0.0"}
!5 = !{!6, !6, i64 0}
!6 = !{!"int", !7, i64 0}
!7 = !{!"omnipotent char", !8, i64 0}
!8 = !{!"Simple C/C++ TBAA"}
!9 = !{!7, !7, i64 0}
!10 = distinct !{!10, !11}
!11 = !{!"llvm.loop.mustprogress"}
!12 = distinct !{!12, !11}
